target datalayout = "e-m:e-p270:32:32-p271:32:32-p272:64:64-i64:64-i128:128-f80:128-n8:16:32:64-S128"
target triple = "x86_64-pc-linux-gnu"

%struct.CVodeMemRec = type { ptr, double, ptr, ptr, i32, i32, double, double, ptr, i32, i32, ptr, ptr, i32, i32, ptr, i32, i32, double, double, ptr, i32, i32, i32, i32, ptr, ptr, ptr, i32, i32, ptr, ptr, ptr, i32, double, i32, i32, double, ptr, ptr, ptr, i32, ptr, ptr, i32, i32, i32, double, ptr, ptr, ptr, [13 x ptr], ptr, ptr, ptr, ptr, ptr, ptr, ptr, ptr, ptr, [13 x ptr], ptr, ptr, ptr, ptr, [13 x ptr], ptr, ptr, ptr, ptr, ptr, i32, [13 x ptr], ptr, ptr, ptr, ptr, ptr, i32, i32, double, i32, i32, i32, i32, i32, double, double, double, double, double, double, double, double, [14 x double], [6 x double], [13 x double], double, double, double, double, double, double, double, double, i32, double, double, i32, double, double, ptr, i32, i64, i32, i32, i32, double, double, double, double, double, double, double, double, double, double, double, double, i64, i32, i64, i64, i64, i64, i64, i64, i64, i64, i64, ptr, i64, i64, ptr, i64, i64, ptr, i64, i64, i64, i64, i64, i64, i32, double, double, double, i64, i64, i64, i64, i64, i64, ptr, i32, ptr, i32, ptr, i32, ptr, i32, i32, i64, i32, ptr, i32, ptr, ptr, ptr, ptr, ptr, ptr, i32, i32, ptr, ptr, ptr, ptr, ptr, i64, double, i32, i32, i64, double, double, double, i32, i32, double, i32, i32, i32, i32, i32, i32, i32, i32, i32, i32, i32, i32, i32, i32, i32, i32, ptr, i64, i32, [6 x [4 x double]], i32, i64, ptr, i32, ptr, ptr, double, double, double, ptr, ptr, ptr, double, double, i32, i32, i64, ptr, i32, ptr, i32, i32, [13 x double], ptr, ptr, ptr, i32, ptr, i32 }

@.str = private unnamed_addr constant [124 x i8] c"generated/home/dtcxzyw/WorkSpace/Projects/compilers/llvm-opt-benchmark/bench/sundials/sundials/src/cvodes/cvodes_nls_stg1.c\00", align 1
@.str.1 = private unnamed_addr constant [26 x i8] c"cvode_mem = NULL illegal.\00", align 1
@__func__.cvNlsFPFunctionSensStg1 = private unnamed_addr constant [24 x i8] c"cvNlsFPFunctionSensStg1\00", align 1

; Function Attrs: nounwind uwtable
define internal i32 @cvNlsFPFunctionSensStg1(ptr noundef %0, ptr noundef %1, ptr noundef %2) #0 {
  %4 = alloca i32, align 4
  %5 = alloca ptr, align 8
  %6 = alloca ptr, align 8
  %7 = alloca ptr, align 8
  %8 = alloca ptr, align 8
  %9 = alloca i32, align 4
  %10 = alloca i32, align 4
  store ptr %0, ptr %5, align 8
  store ptr %1, ptr %6, align 8
  store ptr %2, ptr %7, align 8
  %11 = load ptr, ptr %7, align 8
  %12 = icmp eq ptr %11, null
  br i1 %12, label %13, label %14

13:                                               ; preds = %3
  call void (ptr, i32, i32, ptr, ptr, ptr, ...) @cvProcessError(ptr noundef null, i32 noundef -21, i32 noundef 350, ptr noundef @__func__.cvNlsFPFunctionSensStg1, ptr noundef @.str, ptr noundef @.str.1)
  store i32 -21, ptr %4, align 4
  br label %87

14:                                               ; preds = %3
  %15 = load ptr, ptr %7, align 8
  store ptr %15, ptr %8, align 8
  %16 = load ptr, ptr %8, align 8
  %17 = getelementptr inbounds %struct.CVodeMemRec, ptr %16, i32 0, i32 172
  %18 = load i32, ptr %17, align 4
  store i32 %18, ptr %10, align 4
  %19 = load ptr, ptr %8, align 8
  %20 = getelementptr inbounds %struct.CVodeMemRec, ptr %19, i32 0, i32 66
  %21 = getelementptr inbounds [13 x ptr], ptr %20, i64 0, i64 0
  %22 = load ptr, ptr %21, align 8
  %23 = load i32, ptr %10, align 4
  %24 = sext i32 %23 to i64
  %25 = getelementptr inbounds ptr, ptr %22, i64 %24
  %26 = load ptr, ptr %25, align 8
  %27 = load ptr, ptr %5, align 8
  %28 = load ptr, ptr %8, align 8
  %29 = getelementptr inbounds %struct.CVodeMemRec, ptr %28, i32 0, i32 68
  %30 = load ptr, ptr %29, align 8
  %31 = load i32, ptr %10, align 4
  %32 = sext i32 %31 to i64
  %33 = getelementptr inbounds ptr, ptr %30, i64 %32
  %34 = load ptr, ptr %33, align 8
  call void @N_VLinearSum(double noundef 1.000000e+00, ptr noundef %26, double noundef 1.000000e+00, ptr noundef %27, ptr noundef %34)
  %35 = load ptr, ptr %8, align 8
  %36 = load ptr, ptr %8, align 8
  %37 = getelementptr inbounds %struct.CVodeMemRec, ptr %36, i32 0, i32 93
  %38 = load double, ptr %37, align 8
  %39 = load ptr, ptr %8, align 8
  %40 = getelementptr inbounds %struct.CVodeMemRec, ptr %39, i32 0, i32 53
  %41 = load ptr, ptr %40, align 8
  %42 = load ptr, ptr %8, align 8
  %43 = getelementptr inbounds %struct.CVodeMemRec, ptr %42, i32 0, i32 56
  %44 = load ptr, ptr %43, align 8
  %45 = load i32, ptr %10, align 4
  %46 = load ptr, ptr %8, align 8
  %47 = getelementptr inbounds %struct.CVodeMemRec, ptr %46, i32 0, i32 68
  %48 = load ptr, ptr %47, align 8
  %49 = load i32, ptr %10, align 4
  %50 = sext i32 %49 to i64
  %51 = getelementptr inbounds ptr, ptr %48, i64 %50
  %52 = load ptr, ptr %51, align 8
  %53 = load ptr, ptr %6, align 8
  %54 = load ptr, ptr %8, align 8
  %55 = getelementptr inbounds %struct.CVodeMemRec, ptr %54, i32 0, i32 57
  %56 = load ptr, ptr %55, align 8
  %57 = load ptr, ptr %8, align 8
  %58 = getelementptr inbounds %struct.CVodeMemRec, ptr %57, i32 0, i32 58
  %59 = load ptr, ptr %58, align 8
  %60 = call i32 @cvSensRhs1Wrapper(ptr noundef %35, double noundef %38, ptr noundef %41, ptr noundef %44, i32 noundef %45, ptr noundef %52, ptr noundef %53, ptr noundef %56, ptr noundef %59)
  store i32 %60, ptr %9, align 4
  %61 = load i32, ptr %9, align 4
  %62 = icmp slt i32 %61, 0
  br i1 %62, label %63, label %64

63:                                               ; preds = %14
  store i32 -41, ptr %4, align 4
  br label %87

64:                                               ; preds = %14
  %65 = load i32, ptr %9, align 4
  %66 = icmp sgt i32 %65, 0
  br i1 %66, label %67, label %68

67:                                               ; preds = %64
  store i32 15, ptr %4, align 4
  br label %87

68:                                               ; preds = %64
  %69 = load ptr, ptr %8, align 8
  %70 = getelementptr inbounds %struct.CVodeMemRec, ptr %69, i32 0, i32 88
  %71 = load double, ptr %70, align 8
  %72 = load ptr, ptr %6, align 8
  %73 = load ptr, ptr %8, align 8
  %74 = getelementptr inbounds %struct.CVodeMemRec, ptr %73, i32 0, i32 66
  %75 = getelementptr inbounds [13 x ptr], ptr %74, i64 0, i64 1
  %76 = load ptr, ptr %75, align 8
  %77 = load i32, ptr %10, align 4
  %78 = sext i32 %77 to i64
  %79 = getelementptr inbounds ptr, ptr %76, i64 %78
  %80 = load ptr, ptr %79, align 8
  %81 = load ptr, ptr %6, align 8
  call void @N_VLinearSum(double noundef %71, ptr noundef %72, double noundef -1.000000e+00, ptr noundef %80, ptr noundef %81)
  %82 = load ptr, ptr %8, align 8
  %83 = getelementptr inbounds %struct.CVodeMemRec, ptr %82, i32 0, i32 98
  %84 = load double, ptr %83, align 8
  %85 = load ptr, ptr %6, align 8
  %86 = load ptr, ptr %6, align 8
  call void @N_VScale(double noundef %84, ptr noundef %85, ptr noundef %86)
  store i32 0, ptr %4, align 4
  br label %87

87:                                               ; preds = %68, %67, %63, %13
  %88 = load i32, ptr %4, align 4
  ret i32 %88
}