; Function Attrs: nounwind uwtable
define internal range(i32 -41, 16) i32 @cvNlsFPFunctionSensStg1(ptr noundef %0, ptr noundef %1, ptr noundef %2) #0 {
  %4 = icmp eq ptr %2, null
  br i1 %4, label %5, label %6

5:                                                ; preds = %3
  tail call void (ptr, i32, i32, ptr, ptr, ptr, ...) @cvProcessError(ptr noundef null, i32 noundef -21, i32 noundef 350, ptr noundef nonnull @__func__.cvNlsFPFunctionSensStg1, ptr noundef nonnull @.str, ptr noundef nonnull @.str.1) #2
  br label %43

6:                                                ; preds = %3
  %7 = getelementptr inbounds nuw i8, ptr %2, i64 1892
  %8 = load i32, ptr %7, align 4
  %9 = getelementptr inbounds nuw i8, ptr %2, i64 648
  %10 = load ptr, ptr %9, align 8
  %11 = sext i32 %8 to i64
  %12 = getelementptr inbounds ptr, ptr %10, i64 %11
  %13 = load ptr, ptr %12, align 8
  %14 = getelementptr inbounds nuw i8, ptr %2, i64 760
  %15 = load ptr, ptr %14, align 8
  %16 = getelementptr inbounds ptr, ptr %15, i64 %11
  %17 = load ptr, ptr %16, align 8
  tail call void @N_VLinearSum(double noundef 1.000000e+00, ptr noundef %13, double noundef 1.000000e+00, ptr noundef %0, ptr noundef %17) #2
  %18 = getelementptr inbounds nuw i8, ptr %2, i64 1032
  %19 = load double, ptr %18, align 8
  %20 = getelementptr inbounds nuw i8, ptr %2, i64 448
  %21 = load ptr, ptr %20, align 8
  %22 = getelementptr inbounds nuw i8, ptr %2, i64 472
  %23 = load ptr, ptr %22, align 8
  %24 = load ptr, ptr %14, align 8
  %25 = getelementptr inbounds ptr, ptr %24, i64 %11
  %26 = load ptr, ptr %25, align 8
  %27 = getelementptr inbounds nuw i8, ptr %2, i64 480
  %28 = load ptr, ptr %27, align 8
  %29 = getelementptr inbounds nuw i8, ptr %2, i64 488
  %30 = load ptr, ptr %29, align 8
  %31 = tail call i32 @cvSensRhs1Wrapper(ptr noundef nonnull %2, double noundef %19, ptr noundef %21, ptr noundef %23, i32 noundef %8, ptr noundef %26, ptr noundef %1, ptr noundef %28, ptr noundef %30) #2
  %32 = icmp slt i32 %31, 0
  br i1 %32, label %43, label %33

33:                                               ; preds = %6
  %.not = icmp eq i32 %31, 0
  br i1 %.not, label %34, label %43

34:                                               ; preds = %33
  %35 = getelementptr inbounds nuw i8, ptr %2, i64 992
  %36 = load double, ptr %35, align 8
  %37 = getelementptr inbounds nuw i8, ptr %2, i64 656
  %38 = load ptr, ptr %37, align 8
  %39 = getelementptr inbounds ptr, ptr %38, i64 %11
  %40 = load ptr, ptr %39, align 8
  tail call void @N_VLinearSum(double noundef %36, ptr noundef %1, double noundef -1.000000e+00, ptr noundef %40, ptr noundef %1) #2
  %41 = getelementptr inbounds nuw i8, ptr %2, i64 1312
  %42 = load double, ptr %41, align 8
  tail call void @N_VScale(double noundef %42, ptr noundef %1, ptr noundef %1) #2
  br label %43

43:                                               ; preds = %33, %6, %34, %5
  %.0 = phi i32 [ -21, %5 ], [ 0, %34 ], [ -41, %6 ], [ 15, %33 ]
  ret i32 %.0
}